; Function Attrs: nounwind uwtable
define internal i32 @drsuapi_dissect_DsBind_request(ptr noundef %0, i32 noundef %1, ptr noundef %2, ptr noundef %3, ptr noundef initializes((80, 88)) %4, ptr noundef %5) #0 {
  %7 = getelementptr inbounds nuw i8, ptr %4, i64 80
  store ptr @.str.1697, ptr %7, align 8
  %8 = load i32, ptr @hf_drsuapi_drsuapi_DsBind_bind_guid, align 4
  %9 = tail call i32 @dissect_ndr_toplevel_pointer(ptr noundef %0, i32 noundef %1, ptr noundef %2, ptr noundef %3, ptr noundef %4, ptr noundef %5, ptr noundef nonnull @drsuapi_dissect_element_DsBind_bind_guid_, i32 noundef 2, ptr noundef nonnull @.str.1728, i32 noundef %8) #5
  %10 = tail call i32 @dissect_deferred_pointers(ptr noundef %2, ptr noundef %0, i32 noundef %9, ptr noundef %4, ptr noundef %5) #5
  %11 = load i32, ptr @hf_drsuapi_drsuapi_DsBind_bind_info, align 4
  %12 = tail call i32 @dissect_ndr_toplevel_pointer(ptr noundef %0, i32 noundef %10, ptr noundef %2, ptr noundef %3, ptr noundef %4, ptr noundef %5, ptr noundef nonnull @drsuapi_dissect_element_DsBind_bind_info_, i32 noundef 2, ptr noundef nonnull @.str.1729, i32 noundef %11) #5
  %13 = tail call i32 @dissect_deferred_pointers(ptr noundef %2, ptr noundef %0, i32 noundef %12, ptr noundef %4, ptr noundef %5) #5
  ret i32 %13
}